; Function Attrs: nofree norecurse nosync nounwind memory(argmem: readwrite) uwtable
define internal void @h264_h_loop_filter_luma_12_c(ptr noundef captures(none) %0, i64 noundef %1, i32 noundef %2, i32 noundef %3, ptr noundef readonly captures(none) %4) #1 {
  %6 = ashr i64 %1, 1
  %7 = shl i32 %2, 4
  %8 = shl i32 %3, 4
  %.idx = shl nsw i64 %6, 3
  br label %9

9:                                                ; preds = %5, %.loopexit
  %indvars.iv = phi i64 [ 0, %5 ], [ %indvars.iv.next, %.loopexit ]
  %.099.i7 = phi ptr [ %0, %5 ], [ %.1100.i, %.loopexit ]
  %10 = getelementptr inbounds nuw i8, ptr %4, i64 %indvars.iv
  %11 = load i8, ptr %10, align 1, !tbaa !42
  %12 = sext i8 %11 to i32
  %13 = shl nsw i32 %12, 4
  %14 = icmp slt i8 %11, 0
  br i1 %14, label %17, label %.preheader

.preheader:                                       ; preds = %9
  %.not.i = icmp eq i8 %11, 0
  %15 = sub nsw i32 0, %13
  %16 = or disjoint i32 %13, 1
  br label %19

17:                                               ; preds = %9
  %18 = getelementptr inbounds i8, ptr %.099.i7, i64 %.idx
  br label %.loopexit

19:                                               ; preds = %.preheader, %96
  %.2.i5 = phi ptr [ %.099.i7, %.preheader ], [ %97, %96 ]
  %.0102.i4 = phi i32 [ 0, %.preheader ], [ %98, %96 ]
  %20 = getelementptr inbounds i8, ptr %.2.i5, i64 -2
  %21 = load i16, ptr %20, align 2, !tbaa !37
  %22 = zext i16 %21 to i32
  %23 = getelementptr inbounds i8, ptr %.2.i5, i64 -4
  %24 = load i16, ptr %23, align 2, !tbaa !37
  %25 = zext i16 %24 to i32
  %26 = getelementptr inbounds i8, ptr %.2.i5, i64 -6
  %27 = load i16, ptr %26, align 2, !tbaa !37
  %28 = zext i16 %27 to i32
  %29 = load i16, ptr %.2.i5, align 2, !tbaa !37
  %30 = zext i16 %29 to i32
  %31 = getelementptr inbounds nuw i8, ptr %.2.i5, i64 2
  %32 = load i16, ptr %31, align 2, !tbaa !37
  %33 = zext i16 %32 to i32
  %34 = getelementptr inbounds nuw i8, ptr %.2.i5, i64 4
  %35 = load i16, ptr %34, align 2, !tbaa !37
  %36 = zext i16 %35 to i32
  %37 = sub nsw i32 %22, %30
  %38 = tail call i32 @llvm.abs.i32(i32 %37, i1 true)
  %39 = icmp slt i32 %38, %7
  br i1 %39, label %40, label %96

40:                                               ; preds = %19
  %41 = sub nsw i32 %25, %22
  %42 = tail call i32 @llvm.abs.i32(i32 %41, i1 true)
  %43 = icmp slt i32 %42, %8
  br i1 %43, label %44, label %96

44:                                               ; preds = %40
  %45 = sub nsw i32 %33, %30
  %46 = tail call i32 @llvm.abs.i32(i32 %45, i1 true)
  %47 = icmp samesign ult i32 %46, %8
  br i1 %47, label %48, label %96

48:                                               ; preds = %44
  %49 = sub nsw i32 %28, %22
  %50 = tail call i32 @llvm.abs.i32(i32 %49, i1 true)
  %51 = icmp samesign uge i32 %50, %8
  %brmerge = or i1 %51, %.not.i
  %.mux = select i1 %51, i32 %13, i32 %16
  br i1 %brmerge, label %62, label %52

52:                                               ; preds = %48
  %53 = add nuw nsw i32 %22, 1
  %54 = add nuw nsw i32 %53, %30
  %55 = lshr i32 %54, 1
  %56 = add nuw nsw i32 %55, %28
  %57 = lshr i32 %56, 1
  %58 = sub nsw i32 %57, %25
  %59 = icmp slt i32 %58, %15
  %..i123.i = tail call i32 @llvm.smin.i32(i32 %58, i32 %13)
  %.0.i124.i = select i1 %59, i32 %15, i32 %..i123.i
  %60 = trunc i32 %.0.i124.i to i16
  %61 = add i16 %24, %60
  store i16 %61, ptr %23, align 2, !tbaa !37
  br label %62

62:                                               ; preds = %48, %52
  %.0.i = phi i32 [ %.mux, %48 ], [ %16, %52 ]
  %63 = sub nsw i32 %36, %30
  %64 = tail call i32 @llvm.abs.i32(i32 %63, i1 true)
  %65 = icmp samesign ult i32 %64, %8
  br i1 %65, label %66, label %79

66:                                               ; preds = %62
  br i1 %.not.i, label %77, label %67

67:                                               ; preds = %66
  %68 = add nuw nsw i32 %22, 1
  %69 = add nuw nsw i32 %68, %30
  %70 = lshr i32 %69, 1
  %71 = add nuw nsw i32 %70, %36
  %72 = lshr i32 %71, 1
  %73 = sub nsw i32 %72, %33
  %74 = icmp slt i32 %73, %15
  %..i121.i = tail call i32 @llvm.smin.i32(i32 %73, i32 %13)
  %.0.i122.i = select i1 %74, i32 %15, i32 %..i121.i
  %75 = trunc i32 %.0.i122.i to i16
  %76 = add i16 %32, %75
  store i16 %76, ptr %31, align 2, !tbaa !37
  br label %77

77:                                               ; preds = %67, %66
  %78 = add nuw nsw i32 %.0.i, 1
  br label %79

79:                                               ; preds = %77, %62
  %.1.i = phi i32 [ %78, %77 ], [ %.0.i, %62 ]
  %80 = sub nsw i32 %30, %22
  %81 = shl nsw i32 %80, 2
  %82 = add nuw nsw i32 %25, 4
  %83 = sub nsw i32 %82, %33
  %84 = add nsw i32 %83, %81
  %85 = ashr i32 %84, 3
  %86 = sub nsw i32 0, %.1.i
  %87 = icmp slt i32 %85, %86
  %..i.i = tail call i32 @llvm.smin.i32(i32 %85, i32 %.1.i)
  %.0.i120.i = select i1 %87, i32 %86, i32 %..i.i
  %88 = add nsw i32 %.0.i120.i, %22
  %89 = tail call i32 @llvm.smax.i32(i32 %88, i32 0)
  %90 = tail call i32 @llvm.umin.i32(i32 %89, i32 4095)
  %91 = trunc nuw nsw i32 %90 to i16
  store i16 %91, ptr %20, align 2, !tbaa !37
  %92 = sub nsw i32 %30, %.0.i120.i
  %93 = tail call i32 @llvm.smax.i32(i32 %92, i32 0)
  %94 = tail call i32 @llvm.umin.i32(i32 %93, i32 4095)
  %95 = trunc nuw nsw i32 %94 to i16
  store i16 %95, ptr %.2.i5, align 2, !tbaa !37
  br label %96

96:                                               ; preds = %79, %44, %40, %19
  %97 = getelementptr inbounds i16, ptr %.2.i5, i64 %6
  %98 = add nuw nsw i32 %.0102.i4, 1
  %exitcond.not = icmp eq i32 %98, 4
  br i1 %exitcond.not, label %.loopexit, label %19, !llvm.loop !81

.loopexit:                                        ; preds = %96, %17
  %.1100.i = phi ptr [ %18, %17 ], [ %97, %96 ]
  %indvars.iv.next = add nuw nsw i64 %indvars.iv, 1
  %exitcond9.not = icmp eq i64 %indvars.iv.next, 4
  br i1 %exitcond9.not, label %h264_loop_filter_luma_12_c.exit, label %9, !llvm.loop !82

h264_loop_filter_luma_12_c.exit:                  ; preds = %.loopexit
  ret void
}